target datalayout = "e-m:e-p270:32:32-p271:32:32-p272:64:64-i64:64-i128:128-f80:128-n8:16:32:64-S128"
target triple = "x86_64-pc-linux-gnu"

%"class.g2o::SparseOptimizerTerminateAction" = type { %"class.g2o::HyperGraphAction", double, double, i8, i32 }
%"class.g2o::HyperGraphAction" = type { ptr }

@_ZTVN3g2o16HyperGraphActionE = available_externally unnamed_addr constant { [5 x ptr] } { [5 x ptr] [ptr null, ptr @_ZTIN3g2o16HyperGraphActionE, ptr @_ZN3g2o16HyperGraphActionD1Ev, ptr @_ZN3g2o16HyperGraphActionD0Ev, ptr @_ZN3g2o16HyperGraphActionclEPKNS_10HyperGraphEPNS0_10ParametersE] }, align 8

; Function Attrs: mustprogress nounwind uwtable
define linkonce_odr noundef i32 @_ZNSt14numeric_limitsIiE3maxEv() #4 comdat align 2 {
  ret i32 2147483647
}

; Function Attrs: inlinehint mustprogress nounwind uwtable
define linkonce_odr void @_ZN3g2o16HyperGraphActionC2Ev(ptr noundef nonnull align 8 dereferenceable(8) %0) unnamed_addr #8 comdat align 2 {
  %2 = alloca ptr, align 8
  store ptr %0, ptr %2, align 8, !tbaa !27
  %3 = load ptr, ptr %2, align 8
  store ptr getelementptr inbounds inrange(-16, 24) ({ [5 x ptr] }, ptr @_ZTVN3g2o16HyperGraphActionE, i32 0, i32 0, i32 2), ptr %3, align 8, !tbaa !16
  ret void
}

; Function Attrs: mustprogress nounwind uwtable
define void @_ZN3g2o30SparseOptimizerTerminateActionC2Ev(ptr noundef nonnull align 8 dereferenceable(32) %0) unnamed_addr #4 align 2 {
  %2 = alloca ptr, align 8
  store ptr %0, ptr %2, align 8, !tbaa !14
  %3 = load ptr, ptr %2, align 8
  %4 = getelementptr inbounds i8, ptr %3, i64 0
  call void @llvm.memset.p0.i64(ptr align 8 %4, i8 0, i64 8, i1 false)
  call void @_ZN3g2o16HyperGraphActionC2Ev(ptr noundef nonnull align 8 dereferenceable(8) %3) #3
  store ptr getelementptr inbounds inrange(-16, 24) ({ [5 x ptr] }, ptr @_ZTVN3g2o30SparseOptimizerTerminateActionE, i32 0, i32 0, i32 2), ptr %3, align 8, !tbaa !16
  %5 = getelementptr inbounds nuw %"class.g2o::SparseOptimizerTerminateAction", ptr %3, i32 0, i32 1
  store double 0x3EB0C6F7A0B5ED8D, ptr %5, align 8, !tbaa !18
  %6 = getelementptr inbounds nuw %"class.g2o::SparseOptimizerTerminateAction", ptr %3, i32 0, i32 2
  store double 0.000000e+00, ptr %6, align 8, !tbaa !24
  %7 = getelementptr inbounds nuw %"class.g2o::SparseOptimizerTerminateAction", ptr %3, i32 0, i32 3
  store i8 0, ptr %7, align 8, !tbaa !25
  %8 = getelementptr inbounds nuw %"class.g2o::SparseOptimizerTerminateAction", ptr %3, i32 0, i32 4
  %9 = call noundef i32 @_ZNSt14numeric_limitsIiE3maxEv() #3
  store i32 %9, ptr %8, align 4, !tbaa !26
  ret void
}