; Function Attrs: mustprogress nofree norecurse nosync nounwind willreturn memory(argmem: write) uwtable
define void @_ZN3g2o30SparseOptimizerTerminateActionC2Ev(ptr noundef nonnull writeonly align 8 captures(none) dereferenceable(32) initializes((0, 25), (28, 32)) %0) unnamed_addr #4 align 2 {
  store ptr getelementptr inbounds nuw inrange(-16, 24) (i8, ptr @_ZTVN3g2o30SparseOptimizerTerminateActionE, i64 16), ptr %0, align 8, !tbaa !3
  %2 = getelementptr inbounds nuw i8, ptr %0, i64 8
  store double 0x3EB0C6F7A0B5ED8D, ptr %2, align 8, !tbaa !6
  %3 = getelementptr inbounds nuw i8, ptr %0, i64 16
  store double 0.000000e+00, ptr %3, align 8, !tbaa !13
  %4 = getelementptr inbounds nuw i8, ptr %0, i64 24
  store i8 0, ptr %4, align 8, !tbaa !14
  %5 = getelementptr inbounds nuw i8, ptr %0, i64 28
  store i32 2147483647, ptr %5, align 4, !tbaa !15
  ret void
}